target datalayout = "e-m:e-p270:32:32-p271:32:32-p272:64:64-i64:64-i128:128-f80:128-n8:16:32:64-S128"
target triple = "x86_64-pc-linux-gnu"

%"class.std::vector" = type { %"struct.std::_Vector_base" }
%"struct.std::_Vector_base" = type { %"struct.std::_Vector_base<unsigned long, std::allocator<unsigned long>>::_Vector_impl" }
%"struct.std::_Vector_base<unsigned long, std::allocator<unsigned long>>::_Vector_impl" = type { %"struct.std::_Vector_base<unsigned long, std::allocator<unsigned long>>::_Vector_impl_data" }
%"struct.std::_Vector_base<unsigned long, std::allocator<unsigned long>>::_Vector_impl_data" = type { ptr, ptr, ptr }
%"struct.faiss::ZnSphereSearch" = type { i32, i32, i32, %"class.std::vector.11" }
%"class.std::vector.11" = type { %"struct.std::_Vector_base.12" }
%"struct.std::_Vector_base.12" = type { %"struct.std::_Vector_base<float, std::allocator<float>>::_Vector_impl" }
%"struct.std::_Vector_base<float, std::allocator<float>>::_Vector_impl" = type { %"struct.std::_Vector_base<float, std::allocator<float>>::_Vector_impl_data" }
%"struct.std::_Vector_base<float, std::allocator<float>>::_Vector_impl_data" = type { ptr, ptr, ptr }
%"struct.faiss::ZnSphereCodec" = type { %"struct.faiss::EnumeratedVectors.base", %"struct.faiss::ZnSphereSearch", %"class.std::vector.22", i64, i64 }
%"struct.faiss::EnumeratedVectors.base" = type <{ ptr, i64, i32 }>
%"class.std::vector.22" = type { %"struct.std::_Vector_base.23" }
%"struct.std::_Vector_base.23" = type { %"struct.std::_Vector_base<faiss::ZnSphereCodec::CodeSegment, std::allocator<faiss::ZnSphereCodec::CodeSegment>>::_Vector_impl" }
%"struct.std::_Vector_base<faiss::ZnSphereCodec::CodeSegment, std::allocator<faiss::ZnSphereCodec::CodeSegment>>::_Vector_impl" = type { %"struct.std::_Vector_base<faiss::ZnSphereCodec::CodeSegment, std::allocator<faiss::ZnSphereCodec::CodeSegment>>::_Vector_impl_data" }
%"struct.std::_Vector_base<faiss::ZnSphereCodec::CodeSegment, std::allocator<faiss::ZnSphereCodec::CodeSegment>>::_Vector_impl_data" = type { ptr, ptr, ptr }
%"struct.faiss::ZnSphereCodec::CodeSegment" = type <{ %"struct.faiss::Repeats", i64, i32, [4 x i8] }>
%"struct.faiss::Repeats" = type { i32, %"class.std::vector.0" }
%"class.std::vector.0" = type { %"struct.std::_Vector_base.1" }
%"struct.std::_Vector_base.1" = type { %"struct.std::_Vector_base<faiss::Repeat, std::allocator<faiss::Repeat>>::_Vector_impl" }
%"struct.std::_Vector_base<faiss::Repeat, std::allocator<faiss::Repeat>>::_Vector_impl" = type { %"struct.std::_Vector_base<faiss::Repeat, std::allocator<faiss::Repeat>>::_Vector_impl_data" }
%"struct.std::_Vector_base<faiss::Repeat, std::allocator<faiss::Repeat>>::_Vector_impl_data" = type { ptr, ptr, ptr }
%"struct.faiss::EnumeratedVectors" = type <{ ptr, i64, i32, [4 x i8] }>
%"struct.faiss::ZnSphereCodecRec" = type { %"struct.faiss::EnumeratedVectors.base", i32, i32, i32, %"class.std::vector", %"class.std::vector", i32, %"class.std::vector.28" }
%"class.std::vector.28" = type { %"struct.std::_Vector_base.29" }
%"struct.std::_Vector_base.29" = type { %"struct.std::_Vector_base<std::vector<float>, std::allocator<std::vector<float>>>::_Vector_impl" }
%"struct.std::_Vector_base<std::vector<float>, std::allocator<std::vector<float>>>::_Vector_impl" = type { %"struct.std::_Vector_base<std::vector<float>, std::allocator<std::vector<float>>>::_Vector_impl_data" }
%"struct.std::_Vector_base<std::vector<float>, std::allocator<std::vector<float>>>::_Vector_impl_data" = type { ptr, ptr, ptr }
%"struct.faiss::ZnSphereCodecAlt" = type { %"struct.faiss::ZnSphereCodec", i8, %"struct.faiss::ZnSphereCodecRec" }

; Function Attrs: mustprogress nounwind uwtable
define linkonce_odr noundef nonnull align 8 dereferenceable(44) ptr @_ZNKSt6vectorIN5faiss13ZnSphereCodec11CodeSegmentESaIS2_EEixEm(ptr noundef nonnull align 8 dereferenceable(24) %0, i64 noundef %1) #4 comdat align 2 {
  %3 = alloca ptr, align 8
  %4 = alloca i64, align 8
  store ptr %0, ptr %3, align 8, !tbaa !280
  store i64 %1, ptr %4, align 8, !tbaa !11
  %5 = load ptr, ptr %3, align 8
  %6 = getelementptr inbounds nuw %"struct.std::_Vector_base.23", ptr %5, i32 0, i32 0
  %7 = getelementptr inbounds nuw %"struct.std::_Vector_base<faiss::ZnSphereCodec::CodeSegment, std::allocator<faiss::ZnSphereCodec::CodeSegment>>::_Vector_impl_data", ptr %6, i32 0, i32 0
  %8 = load ptr, ptr %7, align 8, !tbaa !284
  %9 = load i64, ptr %4, align 8, !tbaa !11
  %10 = getelementptr inbounds nuw %"struct.faiss::ZnSphereCodec::CodeSegment", ptr %8, i64 %9
  ret ptr %10
}

; Function Attrs: mustprogress uwtable
define void @_ZNK5faiss13ZnSphereCodec6decodeEmPf(ptr noundef nonnull align 8 dereferenceable(104) %0, i64 noundef %1, ptr noundef %2) unnamed_addr #0 align 2 {
  %4 = alloca ptr, align 8
  %5 = alloca i64, align 8
  %6 = alloca ptr, align 8
  %7 = alloca i32, align 4
  %8 = alloca i32, align 4
  %9 = alloca i32, align 4
  %10 = alloca ptr, align 8
  %11 = alloca i64, align 8
  %12 = alloca i32, align 4
  %13 = alloca i32, align 4
  store ptr %0, ptr %4, align 8, !tbaa !4
  store i64 %1, ptr %5, align 8, !tbaa !11
  store ptr %2, ptr %6, align 8, !tbaa !9
  %14 = load ptr, ptr %4, align 8
  call void @llvm.lifetime.start.p0(i64 4, ptr %7) #3
  store i32 0, ptr %7, align 4, !tbaa !13
  call void @llvm.lifetime.start.p0(i64 4, ptr %8) #3
  %15 = getelementptr inbounds i8, ptr %14, i64 24
  %16 = getelementptr inbounds nuw %"struct.faiss::ZnSphereSearch", ptr %15, i32 0, i32 2
  %17 = load i32, ptr %16, align 8, !tbaa !15
  store i32 %17, ptr %8, align 4, !tbaa !13
  br label %18

18:                                               ; preds = %40, %3
  %19 = load i32, ptr %7, align 4, !tbaa !13
  %20 = add nsw i32 %19, 1
  %21 = load i32, ptr %8, align 4, !tbaa !13
  %22 = icmp slt i32 %20, %21
  br i1 %22, label %23, label %41

23:                                               ; preds = %18
  call void @llvm.lifetime.start.p0(i64 4, ptr %9) #3
  %24 = load i32, ptr %7, align 4, !tbaa !13
  %25 = load i32, ptr %8, align 4, !tbaa !13
  %26 = add nsw i32 %24, %25
  %27 = sdiv i32 %26, 2
  store i32 %27, ptr %9, align 4, !tbaa !13
  %28 = getelementptr inbounds nuw %"struct.faiss::ZnSphereCodec", ptr %14, i32 0, i32 2
  %29 = load i32, ptr %9, align 4, !tbaa !13
  %30 = sext i32 %29 to i64
  %31 = call noundef nonnull align 8 dereferenceable(44) ptr @_ZNKSt6vectorIN5faiss13ZnSphereCodec11CodeSegmentESaIS2_EEixEm(ptr noundef nonnull align 8 dereferenceable(24) %28, i64 noundef %30) #3
  %32 = getelementptr inbounds nuw %"struct.faiss::ZnSphereCodec::CodeSegment", ptr %31, i32 0, i32 1
  %33 = load i64, ptr %32, align 8, !tbaa !21
  %34 = load i64, ptr %5, align 8, !tbaa !11
  %35 = icmp ule i64 %33, %34
  br i1 %35, label %36, label %38

36:                                               ; preds = %23
  %37 = load i32, ptr %9, align 4, !tbaa !13
  store i32 %37, ptr %7, align 4, !tbaa !13
  br label %40

38:                                               ; preds = %23
  %39 = load i32, ptr %9, align 4, !tbaa !13
  store i32 %39, ptr %8, align 4, !tbaa !13
  br label %40

40:                                               ; preds = %38, %36
  call void @llvm.lifetime.end.p0(i64 4, ptr %9) #3
  br label %18, !llvm.loop !29

41:                                               ; preds = %18
  call void @llvm.lifetime.start.p0(i64 8, ptr %10) #3
  %42 = getelementptr inbounds nuw %"struct.faiss::ZnSphereCodec", ptr %14, i32 0, i32 2
  %43 = load i32, ptr %7, align 4, !tbaa !13
  %44 = sext i32 %43 to i64
  %45 = call noundef nonnull align 8 dereferenceable(44) ptr @_ZNKSt6vectorIN5faiss13ZnSphereCodec11CodeSegmentESaIS2_EEixEm(ptr noundef nonnull align 8 dereferenceable(24) %42, i64 noundef %44) #3
  store ptr %45, ptr %10, align 8, !tbaa !31
  %46 = load ptr, ptr %10, align 8, !tbaa !31
  %47 = getelementptr inbounds nuw %"struct.faiss::ZnSphereCodec::CodeSegment", ptr %46, i32 0, i32 1
  %48 = load i64, ptr %47, align 8, !tbaa !21
  %49 = load i64, ptr %5, align 8, !tbaa !11
  %50 = sub i64 %49, %48
  store i64 %50, ptr %5, align 8, !tbaa !11
  call void @llvm.lifetime.start.p0(i64 8, ptr %11) #3
  %51 = load i64, ptr %5, align 8, !tbaa !11
  store i64 %51, ptr %11, align 8, !tbaa !11
  %52 = load ptr, ptr %10, align 8, !tbaa !31
  %53 = getelementptr inbounds nuw %"struct.faiss::ZnSphereCodec::CodeSegment", ptr %52, i32 0, i32 2
  %54 = load i32, ptr %53, align 8, !tbaa !33
  %55 = load i64, ptr %5, align 8, !tbaa !11
  %56 = zext i32 %54 to i64
  %57 = lshr i64 %55, %56
  store i64 %57, ptr %5, align 8, !tbaa !11
  %58 = load ptr, ptr %10, align 8, !tbaa !31
  %59 = load i64, ptr %5, align 8, !tbaa !11
  %60 = load ptr, ptr %6, align 8, !tbaa !9
  call void @_ZNK5faiss7Repeats6decodeEmPf(ptr noundef nonnull align 8 dereferenceable(32) %58, i64 noundef %59, ptr noundef %60)
  call void @llvm.lifetime.start.p0(i64 4, ptr %12) #3
  store i32 0, ptr %12, align 4, !tbaa !13
  call void @llvm.lifetime.start.p0(i64 4, ptr %13) #3
  store i32 0, ptr %13, align 4, !tbaa !13
  br label %61

61:                                               ; preds = %96, %41
  %62 = load i32, ptr %13, align 4, !tbaa !13
  %63 = getelementptr inbounds nuw %"struct.faiss::EnumeratedVectors", ptr %14, i32 0, i32 2
  %64 = load i32, ptr %63, align 8, !tbaa !34
  %65 = icmp slt i32 %62, %64
  br i1 %65, label %67, label %66

66:                                               ; preds = %61
  call void @llvm.lifetime.end.p0(i64 4, ptr %13) #3
  br label %99

67:                                               ; preds = %61
  %68 = load ptr, ptr %6, align 8, !tbaa !9
  %69 = load i32, ptr %13, align 4, !tbaa !13
  %70 = sext i32 %69 to i64
  %71 = getelementptr inbounds float, ptr %68, i64 %70
  %72 = load float, ptr %71, align 4, !tbaa !36
  %73 = fcmp une float %72, 0.000000e+00
  br i1 %73, label %74, label %95

74:                                               ; preds = %67
  %75 = load i64, ptr %11, align 8, !tbaa !11
  %76 = load i32, ptr %12, align 4, !tbaa !13
  %77 = zext i32 %76 to i64
  %78 = shl i64 1, %77
  %79 = and i64 %75, %78
  %80 = icmp ne i64 %79, 0
  br i1 %80, label %81, label %92

81:                                               ; preds = %74
  %82 = load ptr, ptr %6, align 8, !tbaa !9
  %83 = load i32, ptr %13, align 4, !tbaa !13
  %84 = sext i32 %83 to i64
  %85 = getelementptr inbounds float, ptr %82, i64 %84
  %86 = load float, ptr %85, align 4, !tbaa !36
  %87 = fneg float %86
  %88 = load ptr, ptr %6, align 8, !tbaa !9
  %89 = load i32, ptr %13, align 4, !tbaa !13
  %90 = sext i32 %89 to i64
  %91 = getelementptr inbounds float, ptr %88, i64 %90
  store float %87, ptr %91, align 4, !tbaa !36
  br label %92

92:                                               ; preds = %81, %74
  %93 = load i32, ptr %12, align 4, !tbaa !13
  %94 = add nsw i32 %93, 1
  store i32 %94, ptr %12, align 4, !tbaa !13
  br label %95

95:                                               ; preds = %92, %67
  br label %96

96:                                               ; preds = %95
  %97 = load i32, ptr %13, align 4, !tbaa !13
  %98 = add nsw i32 %97, 1
  store i32 %98, ptr %13, align 4, !tbaa !13
  br label %61, !llvm.loop !38

99:                                               ; preds = %66
  call void @llvm.lifetime.end.p0(i64 4, ptr %12) #3
  call void @llvm.lifetime.end.p0(i64 8, ptr %11) #3
  call void @llvm.lifetime.end.p0(i64 8, ptr %10) #3
  call void @llvm.lifetime.end.p0(i64 4, ptr %8) #3
  call void @llvm.lifetime.end.p0(i64 4, ptr %7) #3
  ret void
}

; Function Attrs: mustprogress uwtable
define void @_ZNK5faiss16ZnSphereCodecAlt6decodeEmPf(ptr noundef nonnull align 8 dereferenceable(224) %0, i64 noundef %1, ptr noundef %2) unnamed_addr #0 align 2 {
  %4 = alloca ptr, align 8
  %5 = alloca i64, align 8
  %6 = alloca ptr, align 8
  store ptr %0, ptr %4, align 8, !tbaa !64
  store i64 %1, ptr %5, align 8, !tbaa !11
  store ptr %2, ptr %6, align 8, !tbaa !9
  %7 = load ptr, ptr %4, align 8
  %8 = getelementptr inbounds nuw %"struct.faiss::ZnSphereCodecAlt", ptr %7, i32 0, i32 1
  %9 = load i8, ptr %8, align 8, !tbaa !66, !range !74, !noundef !75
  %10 = trunc i8 %9 to i1
  br i1 %10, label %14, label %11

11:                                               ; preds = %3
  %12 = load i64, ptr %5, align 8, !tbaa !11
  %13 = load ptr, ptr %6, align 8, !tbaa !9
  call void @_ZNK5faiss13ZnSphereCodec6decodeEmPf(ptr noundef nonnull align 8 dereferenceable(104) %7, i64 noundef %12, ptr noundef %13)
  br label %18

14:                                               ; preds = %3
  %15 = getelementptr inbounds nuw %"struct.faiss::ZnSphereCodecAlt", ptr %7, i32 0, i32 2
  %16 = load i64, ptr %5, align 8, !tbaa !11
  %17 = load ptr, ptr %6, align 8, !tbaa !9
  call void @_ZNK5faiss16ZnSphereCodecRec6decodeEmPf(ptr noundef nonnull align 8 dereferenceable(112) %15, i64 noundef %16, ptr noundef %17)
  br label %18

18:                                               ; preds = %14, %11
  ret void
}