; Function Attrs: mustprogress uwtable
define void @_ZNK5faiss16ZnSphereCodecAlt6decodeEmPf(ptr noundef nonnull readonly align 8 captures(none) dereferenceable(224) %0, i64 noundef %1, ptr noundef captures(none) %2) unnamed_addr #0 align 2 {
  %4 = getelementptr inbounds nuw i8, ptr %0, i64 104
  %5 = load i8, ptr %4, align 8, !tbaa !71, !range !78, !noundef !79
  %6 = trunc nuw i8 %5 to i1
  br i1 %6, label %44, label %7

7:                                                ; preds = %3
  %8 = getelementptr inbounds nuw i8, ptr %0, i64 32
  %9 = load i32, ptr %8, align 8, !tbaa !4
  %10 = icmp sgt i32 %9, 1
  %11 = getelementptr inbounds nuw i8, ptr %0, i64 64
  %12 = load ptr, ptr %11, align 8, !tbaa !15
  br i1 %10, label %.lr.ph.i, label %._crit_edge.i

.lr.ph.i:                                         ; preds = %7, %.lr.ph.i
  %.02936.i = phi i32 [ %.029..i, %.lr.ph.i ], [ 0, %7 ]
  %.03135.i = phi i32 [ %..031.i, %.lr.ph.i ], [ %9, %7 ]
  %13 = add nuw nsw i32 %.03135.i, %.02936.i
  %14 = lshr i32 %13, 1
  %15 = zext nneg i32 %14 to i64
  %16 = getelementptr inbounds nuw %"struct.faiss::ZnSphereCodec::CodeSegment", ptr %12, i64 %15, i32 1
  %17 = load i64, ptr %16, align 8, !tbaa !18
  %.not34.i = icmp ugt i64 %17, %1
  %..031.i = select i1 %.not34.i, i32 %14, i32 %.03135.i
  %.029..i = select i1 %.not34.i, i32 %.02936.i, i32 %14
  %18 = add nuw nsw i32 %.029..i, 1
  %19 = icmp samesign ult i32 %18, %..031.i
  br i1 %19, label %.lr.ph.i, label %._crit_edge.loopexit.i, !llvm.loop !27

._crit_edge.loopexit.i:                           ; preds = %.lr.ph.i
  %20 = zext nneg i32 %.029..i to i64
  br label %._crit_edge.i

._crit_edge.i:                                    ; preds = %._crit_edge.loopexit.i, %7
  %.029.lcssa.i = phi i64 [ %20, %._crit_edge.loopexit.i ], [ 0, %7 ]
  %21 = getelementptr inbounds nuw %"struct.faiss::ZnSphereCodec::CodeSegment", ptr %12, i64 %.029.lcssa.i
  %22 = getelementptr inbounds nuw i8, ptr %21, i64 32
  %23 = load i64, ptr %22, align 8, !tbaa !18
  %24 = sub i64 %1, %23
  %25 = getelementptr inbounds nuw i8, ptr %21, i64 40
  %26 = load i32, ptr %25, align 8, !tbaa !29
  %27 = zext nneg i32 %26 to i64
  %28 = lshr i64 %24, %27
  tail call void @_ZNK5faiss7Repeats6decodeEmPf(ptr noundef nonnull align 8 dereferenceable(32) %21, i64 noundef %28, ptr noundef %2)
  %29 = getelementptr inbounds nuw i8, ptr %0, i64 16
  %30 = load i32, ptr %29, align 8, !tbaa !30
  %31 = icmp sgt i32 %30, 0
  br i1 %31, label %.lr.ph40.preheader.i, label %_ZNK5faiss13ZnSphereCodec6decodeEmPf.exit

.lr.ph40.preheader.i:                             ; preds = %._crit_edge.i
  %wide.trip.count.i = zext nneg i32 %30 to i64
  br label %.lr.ph40.i

.lr.ph40.i:                                       ; preds = %43, %.lr.ph40.preheader.i
  %indvars.iv.i = phi i64 [ 0, %.lr.ph40.preheader.i ], [ %indvars.iv.next.i, %43 ]
  %.02837.i = phi i32 [ 0, %.lr.ph40.preheader.i ], [ %.1.i, %43 ]
  %32 = getelementptr inbounds nuw float, ptr %2, i64 %indvars.iv.i
  %33 = load float, ptr %32, align 4, !tbaa !32
  %34 = fcmp une float %33, 0.000000e+00
  br i1 %34, label %35, label %43

35:                                               ; preds = %.lr.ph40.i
  %36 = zext nneg i32 %.02837.i to i64
  %37 = shl nuw i64 1, %36
  %38 = and i64 %37, %24
  %.not.i = icmp eq i64 %38, 0
  br i1 %.not.i, label %41, label %39

39:                                               ; preds = %35
  %40 = fneg float %33
  store float %40, ptr %32, align 4, !tbaa !32
  br label %41

41:                                               ; preds = %39, %35
  %42 = add nsw i32 %.02837.i, 1
  br label %43

43:                                               ; preds = %41, %.lr.ph40.i
  %.1.i = phi i32 [ %42, %41 ], [ %.02837.i, %.lr.ph40.i ]
  %indvars.iv.next.i = add nuw nsw i64 %indvars.iv.i, 1
  %exitcond.not.i = icmp eq i64 %indvars.iv.next.i, %wide.trip.count.i
  br i1 %exitcond.not.i, label %_ZNK5faiss13ZnSphereCodec6decodeEmPf.exit, label %.lr.ph40.i, !llvm.loop !34

44:                                               ; preds = %3
  %45 = getelementptr inbounds nuw i8, ptr %0, i64 112
  tail call void @_ZNK5faiss16ZnSphereCodecRec6decodeEmPf(ptr noundef nonnull align 8 dereferenceable(112) %45, i64 noundef %1, ptr noundef %2)
  br label %_ZNK5faiss13ZnSphereCodec6decodeEmPf.exit

_ZNK5faiss13ZnSphereCodec6decodeEmPf.exit:        ; preds = %43, %._crit_edge.i, %44
  ret void
}